target datalayout = "e-m:e-p270:32:32-p271:32:32-p272:64:64-i64:64-i128:128-f80:128-n8:16:32:64-S128"
target triple = "x86_64-pc-linux-gnu"

%struct.libdeflate_decompressor = type { %union.anon, [402 x i32], [288 x i16], i8, i32, ptr }
%union.anon = type { [2342 x i32] }

; Function Attrs: nounwind uwtable
define void @libdeflate_free_decompressor(ptr noundef %0) #0 {
  %2 = alloca ptr, align 8
  store ptr %0, ptr %2, align 8, !tbaa !4
  %3 = load ptr, ptr %2, align 8, !tbaa !4
  %4 = icmp ne ptr %3, null
  br i1 %4, label %5, label %10

5:                                                ; preds = %1
  %6 = load ptr, ptr %2, align 8, !tbaa !4
  %7 = getelementptr inbounds nuw %struct.libdeflate_decompressor, ptr %6, i32 0, i32 5
  %8 = load ptr, ptr %7, align 8, !tbaa !20
  %9 = load ptr, ptr %2, align 8, !tbaa !4
  call void %8(ptr noundef %9)
  br label %10

10:                                               ; preds = %5, %1
  ret void
}