; Function Attrs: nounwind uwtable
define void @libdeflate_free_decompressor(ptr noundef %0) local_unnamed_addr #0 {
  %.not = icmp eq ptr %0, null
  br i1 %.not, label %5, label %2

2:                                                ; preds = %1
  %3 = getelementptr inbounds nuw i8, ptr %0, i64 11560
  %4 = load ptr, ptr %3, align 8, !tbaa !13
  tail call void %4(ptr noundef nonnull %0) #10
  br label %5

5:                                                ; preds = %2, %1
  ret void
}